target datalayout = "e-m:e-p270:32:32-p271:32:32-p272:64:64-i64:64-i128:128-f80:128-n8:16:32:64-S128"
target triple = "x86_64-pc-linux-gnu"

%struct.BufferPoolContext = type { ptr, ptr, ptr, ptr, ptr, i32, i32, i32 }

; Function Attrs: inlinehint nounwind uwtable
define internal void @av_refstruct_pool_uninit(ptr noundef %0) #6 {
  %2 = alloca ptr, align 8
  store ptr %0, ptr %2, align 8, !tbaa !150
  %3 = load ptr, ptr %2, align 8, !tbaa !150
  call void @av_refstruct_unref(ptr noundef %3)
  ret void
}

; Function Attrs: cold nounwind optsize uwtable
define internal void @free_buffer_pools(ptr noundef %0) #0 {
  %2 = alloca ptr, align 8
  store ptr %0, ptr %2, align 8, !tbaa !73
  %3 = load ptr, ptr %2, align 8, !tbaa !73
  %4 = getelementptr inbounds nuw %struct.BufferPoolContext, ptr %3, i32 0, i32 0
  call void @av_refstruct_pool_uninit(ptr noundef %4)
  %5 = load ptr, ptr %2, align 8, !tbaa !73
  %6 = getelementptr inbounds nuw %struct.BufferPoolContext, ptr %5, i32 0, i32 1
  call void @av_refstruct_pool_uninit(ptr noundef %6)
  %7 = load ptr, ptr %2, align 8, !tbaa !73
  %8 = getelementptr inbounds nuw %struct.BufferPoolContext, ptr %7, i32 0, i32 2
  call void @av_refstruct_pool_uninit(ptr noundef %8)
  %9 = load ptr, ptr %2, align 8, !tbaa !73
  %10 = getelementptr inbounds nuw %struct.BufferPoolContext, ptr %9, i32 0, i32 3
  call void @av_refstruct_pool_uninit(ptr noundef %10)
  %11 = load ptr, ptr %2, align 8, !tbaa !73
  %12 = getelementptr inbounds nuw %struct.BufferPoolContext, ptr %11, i32 0, i32 4
  call void @av_refstruct_pool_uninit(ptr noundef %12)
  %13 = load ptr, ptr %2, align 8, !tbaa !73
  %14 = getelementptr inbounds nuw %struct.BufferPoolContext, ptr %13, i32 0, i32 7
  store i32 0, ptr %14, align 8, !tbaa !120
  %15 = load ptr, ptr %2, align 8, !tbaa !73
  %16 = getelementptr inbounds nuw %struct.BufferPoolContext, ptr %15, i32 0, i32 5
  store i32 0, ptr %16, align 8, !tbaa !118
  %17 = load ptr, ptr %2, align 8, !tbaa !73
  %18 = getelementptr inbounds nuw %struct.BufferPoolContext, ptr %17, i32 0, i32 6
  store i32 0, ptr %18, align 4, !tbaa !119
  ret void
}