; Function Attrs: cold nounwind optsize uwtable
define internal fastcc void @free_buffer_pools(ptr noundef %0) unnamed_addr #2 {
  tail call void @av_refstruct_unref(ptr noundef %0) #12
  %2 = getelementptr inbounds nuw i8, ptr %0, i64 8
  tail call void @av_refstruct_unref(ptr noundef nonnull %2) #12
  %3 = getelementptr inbounds nuw i8, ptr %0, i64 16
  tail call void @av_refstruct_unref(ptr noundef nonnull %3) #12
  %4 = getelementptr inbounds nuw i8, ptr %0, i64 24
  tail call void @av_refstruct_unref(ptr noundef nonnull %4) #12
  %5 = getelementptr inbounds nuw i8, ptr %0, i64 32
  tail call void @av_refstruct_unref(ptr noundef nonnull %5) #12
  %6 = getelementptr inbounds nuw i8, ptr %0, i64 48
  store i32 0, ptr %6, align 8, !tbaa !111
  %7 = getelementptr inbounds nuw i8, ptr %0, i64 40
  store i32 0, ptr %7, align 8, !tbaa !109
  %8 = getelementptr inbounds nuw i8, ptr %0, i64 44
  store i32 0, ptr %8, align 4, !tbaa !110
  ret void
}